target datalayout = "e-m:e-p270:32:32-p271:32:32-p272:64:64-i64:64-i128:128-f80:128-n8:16:32:64-S128"
target triple = "x86_64-pc-linux-gnu"

; Function Attrs: inlinehint nounwind sspstrong willreturn memory(none) uwtable
define internal zeroext i1 @RB_UNDEF_P(i64 noundef %0) #4 {
  %2 = alloca i64, align 8
  store i64 %0, ptr %2, align 8, !tbaa !31
  %3 = load i64, ptr %2, align 8, !tbaa !31
  %4 = icmp eq i64 %3, 36
  ret i1 %4
}

; Function Attrs: nounwind sspstrong uwtable
define internal i64 @opt_equality_by_mid(i64 noundef %0, i64 noundef %1, i64 noundef %2) #0 {
  %4 = alloca i64, align 8
  %5 = alloca i64, align 8
  %6 = alloca i64, align 8
  %7 = alloca i64, align 8
  %8 = alloca i64, align 8
  %9 = alloca i32, align 4
  store i64 %0, ptr %5, align 8, !tbaa !31
  store i64 %1, ptr %6, align 8, !tbaa !31
  store i64 %2, ptr %7, align 8, !tbaa !31
  call void @llvm.lifetime.start.p0(i64 8, ptr %8) #21
  %10 = load i64, ptr %5, align 8, !tbaa !31
  %11 = load i64, ptr %6, align 8, !tbaa !31
  %12 = call i64 @opt_equality_specialized(i64 noundef %10, i64 noundef %11)
  store i64 %12, ptr %8, align 8, !tbaa !31
  %13 = load i64, ptr %8, align 8, !tbaa !31
  %14 = call zeroext i1 @RB_UNDEF_P(i64 noundef %13) #36
  br i1 %14, label %17, label %15

15:                                               ; preds = %3
  %16 = load i64, ptr %8, align 8, !tbaa !31
  store i64 %16, ptr %4, align 8
  store i32 1, ptr %9, align 4
  br label %22

17:                                               ; preds = %3
  %18 = load i64, ptr %5, align 8, !tbaa !31
  %19 = load i64, ptr %6, align 8, !tbaa !31
  %20 = load i64, ptr %7, align 8, !tbaa !31
  %21 = call i64 @opt_equality_by_mid_slowpath(i64 noundef %18, i64 noundef %19, i64 noundef %20)
  store i64 %21, ptr %4, align 8
  store i32 1, ptr %9, align 4
  br label %22

22:                                               ; preds = %17, %15
  call void @llvm.lifetime.end.p0(i64 8, ptr %8) #21
  %23 = load i64, ptr %4, align 8
  ret i64 %23
}

; Function Attrs: nounwind sspstrong uwtable
define hidden i64 @rb_equal_opt(i64 noundef %0, i64 noundef %1) #0 {
  %3 = alloca i64, align 8
  %4 = alloca i64, align 8
  store i64 %0, ptr %3, align 8, !tbaa !31
  store i64 %1, ptr %4, align 8, !tbaa !31
  %5 = load i64, ptr %3, align 8, !tbaa !31
  %6 = load i64, ptr %4, align 8, !tbaa !31
  %7 = call i64 @opt_equality_by_mid(i64 noundef %5, i64 noundef %6, i64 noundef 140)
  ret i64 %7
}