; Function Attrs: nounwind sspstrong uwtable
define hidden range(i64 0, 37) i64 @rb_equal_opt(i64 noundef %0, i64 noundef %1) local_unnamed_addr #2 {
  %3 = tail call fastcc i64 @opt_equality_specialized(i64 noundef %0, i64 noundef %1)
  %4 = icmp eq i64 %3, 36
  br i1 %4, label %5, label %opt_equality_by_mid.exit

5:                                                ; preds = %2
  %6 = tail call fastcc i64 @opt_equality_by_mid_slowpath(i64 noundef %0, i64 noundef %1, i64 noundef 140)
  br label %opt_equality_by_mid.exit

opt_equality_by_mid.exit:                         ; preds = %2, %5
  %.0.i = phi i64 [ %6, %5 ], [ %3, %2 ]
  ret i64 %.0.i
}